target datalayout = "e-m:e-p270:32:32-p271:32:32-p272:64:64-i64:64-i128:128-f80:128-n8:16:32:64-S128"
target triple = "x86_64-pc-linux-gnu"

%struct.opj_tcd = type { i32, i32, i32, i32, i32, ptr, ptr, ptr, ptr, i32, i8, ptr, i32, i32, i32, i32, i32, ptr }
%struct.opj_tcd_image = type { ptr }
%struct.opj_image = type { i32, i32, i32, i32, i32, i32, ptr, ptr, i32 }
%struct.opj_tcd_tile = type { i32, i32, i32, i32, i32, ptr, i64, double, [100 x double], i32 }
%struct.opj_cp = type { i16, i32, i32, i32, i32, ptr, i32, i32, i32, ptr, ptr, i32, i32, ptr, ptr, ptr, i32, i32, i32, ptr, %union.anon, i32, i8 }
%union.anon = type { %struct.opj_encoding_param }
%struct.opj_encoding_param = type { i32, i32, ptr, i8, i32, i8 }

; Function Attrs: nounwind uwtable
define hidden i32 @opj_tcd_init(ptr noundef %0, ptr noundef %1, ptr noundef %2, ptr noundef %3) #0 {
  %5 = alloca i32, align 4
  %6 = alloca ptr, align 8
  %7 = alloca ptr, align 8
  %8 = alloca ptr, align 8
  %9 = alloca ptr, align 8
  store ptr %0, ptr %6, align 8, !tbaa !7
  store ptr %1, ptr %7, align 8, !tbaa !18
  store ptr %2, ptr %8, align 8, !tbaa !19
  store ptr %3, ptr %9, align 8, !tbaa !20
  %10 = load ptr, ptr %7, align 8, !tbaa !18
  %11 = load ptr, ptr %6, align 8, !tbaa !7
  %12 = getelementptr inbounds nuw %struct.opj_tcd, ptr %11, i32 0, i32 6
  store ptr %10, ptr %12, align 8, !tbaa !21
  %13 = load ptr, ptr %8, align 8, !tbaa !19
  %14 = load ptr, ptr %6, align 8, !tbaa !7
  %15 = getelementptr inbounds nuw %struct.opj_tcd, ptr %14, i32 0, i32 7
  store ptr %13, ptr %15, align 8, !tbaa !22
  %16 = call ptr @opj_calloc(i64 noundef 1, i64 noundef 856)
  %17 = load ptr, ptr %6, align 8, !tbaa !7
  %18 = getelementptr inbounds nuw %struct.opj_tcd, ptr %17, i32 0, i32 5
  %19 = load ptr, ptr %18, align 8, !tbaa !10
  %20 = getelementptr inbounds nuw %struct.opj_tcd_image, ptr %19, i32 0, i32 0
  store ptr %16, ptr %20, align 8, !tbaa !23
  %21 = load ptr, ptr %6, align 8, !tbaa !7
  %22 = getelementptr inbounds nuw %struct.opj_tcd, ptr %21, i32 0, i32 5
  %23 = load ptr, ptr %22, align 8, !tbaa !10
  %24 = getelementptr inbounds nuw %struct.opj_tcd_image, ptr %23, i32 0, i32 0
  %25 = load ptr, ptr %24, align 8, !tbaa !23
  %26 = icmp ne ptr %25, null
  br i1 %26, label %28, label %27

27:                                               ; preds = %4
  store i32 0, ptr %5, align 4
  br label %68

28:                                               ; preds = %4
  %29 = load ptr, ptr %7, align 8, !tbaa !18
  %30 = getelementptr inbounds nuw %struct.opj_image, ptr %29, i32 0, i32 4
  %31 = load i32, ptr %30, align 8, !tbaa !26
  %32 = zext i32 %31 to i64
  %33 = call ptr @opj_calloc(i64 noundef %32, i64 noundef 112)
  %34 = load ptr, ptr %6, align 8, !tbaa !7
  %35 = getelementptr inbounds nuw %struct.opj_tcd, ptr %34, i32 0, i32 5
  %36 = load ptr, ptr %35, align 8, !tbaa !10
  %37 = getelementptr inbounds nuw %struct.opj_tcd_image, ptr %36, i32 0, i32 0
  %38 = load ptr, ptr %37, align 8, !tbaa !23
  %39 = getelementptr inbounds nuw %struct.opj_tcd_tile, ptr %38, i32 0, i32 5
  store ptr %33, ptr %39, align 8, !tbaa !30
  %40 = load ptr, ptr %6, align 8, !tbaa !7
  %41 = getelementptr inbounds nuw %struct.opj_tcd, ptr %40, i32 0, i32 5
  %42 = load ptr, ptr %41, align 8, !tbaa !10
  %43 = getelementptr inbounds nuw %struct.opj_tcd_image, ptr %42, i32 0, i32 0
  %44 = load ptr, ptr %43, align 8, !tbaa !23
  %45 = getelementptr inbounds nuw %struct.opj_tcd_tile, ptr %44, i32 0, i32 5
  %46 = load ptr, ptr %45, align 8, !tbaa !30
  %47 = icmp ne ptr %46, null
  br i1 %47, label %49, label %48

48:                                               ; preds = %28
  store i32 0, ptr %5, align 4
  br label %68

49:                                               ; preds = %28
  %50 = load ptr, ptr %7, align 8, !tbaa !18
  %51 = getelementptr inbounds nuw %struct.opj_image, ptr %50, i32 0, i32 4
  %52 = load i32, ptr %51, align 8, !tbaa !26
  %53 = load ptr, ptr %6, align 8, !tbaa !7
  %54 = getelementptr inbounds nuw %struct.opj_tcd, ptr %53, i32 0, i32 5
  %55 = load ptr, ptr %54, align 8, !tbaa !10
  %56 = getelementptr inbounds nuw %struct.opj_tcd_image, ptr %55, i32 0, i32 0
  %57 = load ptr, ptr %56, align 8, !tbaa !23
  %58 = getelementptr inbounds nuw %struct.opj_tcd_tile, ptr %57, i32 0, i32 4
  store i32 %52, ptr %58, align 8, !tbaa !35
  %59 = load ptr, ptr %8, align 8, !tbaa !19
  %60 = getelementptr inbounds nuw %struct.opj_cp, ptr %59, i32 0, i32 20
  %61 = getelementptr inbounds nuw %struct.opj_encoding_param, ptr %60, i32 0, i32 1
  %62 = load i32, ptr %61, align 4, !tbaa !36
  %63 = load ptr, ptr %6, align 8, !tbaa !7
  %64 = getelementptr inbounds nuw %struct.opj_tcd, ptr %63, i32 0, i32 0
  store i32 %62, ptr %64, align 8, !tbaa !37
  %65 = load ptr, ptr %9, align 8, !tbaa !20
  %66 = load ptr, ptr %6, align 8, !tbaa !7
  %67 = getelementptr inbounds nuw %struct.opj_tcd, ptr %66, i32 0, i32 11
  store ptr %65, ptr %67, align 8, !tbaa !38
  store i32 1, ptr %5, align 4
  br label %68

68:                                               ; preds = %49, %48, %27
  %69 = load i32, ptr %5, align 4
  ret i32 %69
}