; Function Attrs: nounwind uwtable
define hidden range(i32 0, 2) i32 @opj_tcd_init(ptr noundef captures(none) initializes((32, 48)) %0, ptr noundef %1, ptr noundef %2, ptr noundef %3) local_unnamed_addr #0 {
  %5 = getelementptr inbounds nuw i8, ptr %0, i64 32
  store ptr %1, ptr %5, align 8, !tbaa !15
  %6 = getelementptr inbounds nuw i8, ptr %0, i64 40
  store ptr %2, ptr %6, align 8, !tbaa !16
  %7 = tail call ptr @opj_calloc(i64 noundef 1, i64 noundef 856) #16
  %8 = getelementptr inbounds nuw i8, ptr %0, i64 24
  %9 = load ptr, ptr %8, align 8, !tbaa !3
  store ptr %7, ptr %9, align 8, !tbaa !17
  %.not = icmp eq ptr %7, null
  br i1 %.not, label %24, label %10

10:                                               ; preds = %4
  %11 = getelementptr inbounds nuw i8, ptr %1, i64 16
  %12 = load i32, ptr %11, align 8, !tbaa !20
  %13 = zext i32 %12 to i64
  %14 = tail call ptr @opj_calloc(i64 noundef %13, i64 noundef 112) #16
  %15 = load ptr, ptr %8, align 8, !tbaa !3
  %16 = load ptr, ptr %15, align 8, !tbaa !17
  %17 = getelementptr inbounds nuw i8, ptr %16, i64 24
  store ptr %14, ptr %17, align 8, !tbaa !24
  %.not15 = icmp eq ptr %14, null
  br i1 %.not15, label %24, label %18

18:                                               ; preds = %10
  %19 = load i32, ptr %11, align 8, !tbaa !20
  %20 = getelementptr inbounds nuw i8, ptr %16, i64 16
  store i32 %19, ptr %20, align 8, !tbaa !29
  %21 = getelementptr inbounds nuw i8, ptr %2, i64 124
  %22 = load i32, ptr %21, align 4, !tbaa !30
  store i32 %22, ptr %0, align 8, !tbaa !31
  %23 = getelementptr inbounds nuw i8, ptr %0, i64 64
  store ptr %3, ptr %23, align 8, !tbaa !32
  br label %24

24:                                               ; preds = %10, %4, %18
  %.0 = phi i32 [ 1, %18 ], [ 0, %4 ], [ 0, %10 ]
  ret i32 %.0
}